; Function Attrs: mustprogress nofree nosync nounwind willreturn memory(readwrite, inaccessiblemem: none) uwtable
define noundef ptr @mi__expand(ptr noundef %0, i64 noundef %1) local_unnamed_addr #16 personality ptr @__gxx_personality_v0 {
  %3 = icmp eq ptr %0, null
  br i1 %3, label %select.unfold, label %4

4:                                                ; preds = %2
  %5 = ptrtoint ptr %0 to i64
  %6 = add i64 %5, -1
  %7 = and i64 %6, -33554432
  %8 = icmp slt i64 %6, 33554432
  %9 = icmp eq i64 %7, 0
  %10 = or i1 %8, %9
  br i1 %10, label %_ZL15_mi_usable_sizePKvPKc.exit.i, label %11, !prof !17

11:                                               ; preds = %4
  %12 = inttoptr i64 %7 to ptr
  %13 = sub i64 %5, %7
  %14 = lshr i64 %13, 16
  %15 = getelementptr inbounds nuw i8, ptr %12, i64 288
  %16 = getelementptr inbounds nuw [513 x %struct.mi_page_s], ptr %15, i64 0, i64 %14
  %17 = getelementptr inbounds nuw i8, ptr %16, i64 4
  %18 = load i32, ptr %17, align 4, !tbaa !24
  %19 = zext i32 %18 to i64
  %20 = sub nsw i64 0, %19
  %21 = getelementptr inbounds i8, ptr %16, i64 %20
  %22 = getelementptr i8, ptr %21, i64 14
  %.val.i.i = load i8, ptr %22, align 2
  %23 = and i8 %.val.i.i, 2
  %.not.i.i = icmp eq i8 %23, 0
  br i1 %.not.i.i, label %24, label %26, !prof !23

24:                                               ; preds = %11
  %25 = getelementptr i8, ptr %21, i64 40
  %.val12.i.i = load i64, ptr %25, align 8, !tbaa !18
  br label %_ZL15_mi_usable_sizePKvPKc.exit.i

26:                                               ; preds = %11
  %27 = tail call fastcc noundef i64 @_ZL30mi_page_usable_aligned_size_ofPK9mi_page_sPKv(ptr noundef nonnull %21, ptr noundef nonnull %0) #55
  br label %_ZL15_mi_usable_sizePKvPKc.exit.i

_ZL15_mi_usable_sizePKvPKc.exit.i:                ; preds = %26, %24, %4
  %.0.i.i = phi i64 [ 0, %4 ], [ %27, %26 ], [ %.val12.i.i, %24 ]
  %28 = icmp ugt i64 %1, %.0.i.i
  br i1 %28, label %select.unfold, label %mi_expand.exit

select.unfold:                                    ; preds = %_ZL15_mi_usable_sizePKvPKc.exit.i, %2
  %29 = tail call ptr @__errno_location() #59
  store i32 12, ptr %29, align 4, !tbaa !66
  br label %mi_expand.exit

mi_expand.exit:                                   ; preds = %_ZL15_mi_usable_sizePKvPKc.exit.i, %select.unfold
  %.0.i4 = phi ptr [ null, %select.unfold ], [ %0, %_ZL15_mi_usable_sizePKvPKc.exit.i ]
  ret ptr %.0.i4
}